; Function Attrs: mustprogress uwtable
define void @_ZN2cv9videostab14ColorInpainter7inpaintEiRNS_3MatES3_(ptr noundef nonnull align 8 dereferenceable(160) %0, i32 %1, ptr noundef nonnull align 8 dereferenceable(96) %2, ptr noundef nonnull align 8 dereferenceable(96) %3) unnamed_addr #3 align 2 personality ptr @__gxx_personality_v0 {
  %5 = alloca %"class.cv::utils::trace::details::Region", align 8
  %6 = alloca %"class.cv::_InputArray", align 8
  %7 = alloca %"class.cv::_OutputArray", align 8
  %8 = alloca %"class.cv::_InputArray", align 8
  %9 = alloca %"class.cv::_InputArray", align 8
  %10 = alloca %"class.cv::_OutputArray", align 8
  call void @llvm.lifetime.start.p0(i64 16, ptr nonnull %5) #26
  call void @_ZN2cv5utils5trace7details6RegionC1ERKNS3_21LocationStaticStorageE(ptr noundef nonnull align 8 dereferenceable(12) %5, ptr noundef nonnull align 8 dereferenceable(32) @_ZZN2cv9videostab14ColorInpainter7inpaintEiRNS_3MatES3_E25__cv_trace_location_fn479)
  call void @llvm.lifetime.start.p0(i64 24, ptr nonnull %6) #26
  %11 = getelementptr inbounds nuw i8, ptr %6, i64 16
  store i32 0, ptr %11, align 8, !tbaa !126
  %12 = getelementptr inbounds nuw i8, ptr %6, i64 20
  store i32 0, ptr %12, align 4, !tbaa !127
  store i32 16842752, ptr %6, align 8, !tbaa !122
  %13 = getelementptr inbounds nuw i8, ptr %6, i64 8
  store ptr %3, ptr %13, align 8, !tbaa !125
  call void @llvm.lifetime.start.p0(i64 24, ptr nonnull %7) #26
  %14 = getelementptr inbounds nuw i8, ptr %0, i64 64
  %15 = getelementptr inbounds nuw i8, ptr %7, i64 8
  %16 = getelementptr inbounds nuw i8, ptr %7, i64 16
  store i64 0, ptr %16, align 8
  store i32 33619968, ptr %7, align 8, !tbaa !122
  store ptr %14, ptr %15, align 8, !tbaa !125
  %17 = invoke noundef nonnull align 8 dereferenceable(24) ptr @_ZN2cv7noArrayEv()
          to label %18 unwind label %39

18:                                               ; preds = %4
  invoke void @_ZN2cv11bitwise_notERKNS_11_InputArrayERKNS_12_OutputArrayES2_(ptr noundef nonnull align 8 dereferenceable(24) %6, ptr noundef nonnull align 8 dereferenceable(24) %7, ptr noundef nonnull align 8 dereferenceable(24) %17)
          to label %19 unwind label %39

19:                                               ; preds = %18
  call void @llvm.lifetime.end.p0(i64 24, ptr nonnull %7) #26
  call void @llvm.lifetime.end.p0(i64 24, ptr nonnull %6) #26
  call void @llvm.lifetime.start.p0(i64 24, ptr nonnull %8) #26
  %20 = getelementptr inbounds nuw i8, ptr %8, i64 16
  store i32 0, ptr %20, align 8, !tbaa !126
  %21 = getelementptr inbounds nuw i8, ptr %8, i64 20
  store i32 0, ptr %21, align 4, !tbaa !127
  store i32 16842752, ptr %8, align 8, !tbaa !122
  %22 = getelementptr inbounds nuw i8, ptr %8, i64 8
  store ptr %2, ptr %22, align 8, !tbaa !125
  call void @llvm.lifetime.start.p0(i64 24, ptr nonnull %9) #26
  %23 = getelementptr inbounds nuw i8, ptr %9, i64 16
  store i32 0, ptr %23, align 8, !tbaa !126
  %24 = getelementptr inbounds nuw i8, ptr %9, i64 20
  store i32 0, ptr %24, align 4, !tbaa !127
  store i32 16842752, ptr %9, align 8, !tbaa !122
  %25 = getelementptr inbounds nuw i8, ptr %9, i64 8
  store ptr %14, ptr %25, align 8, !tbaa !125
  call void @llvm.lifetime.start.p0(i64 24, ptr nonnull %10) #26
  %26 = getelementptr inbounds nuw i8, ptr %10, i64 8
  %27 = getelementptr inbounds nuw i8, ptr %10, i64 16
  store i64 0, ptr %27, align 8
  store i32 33619968, ptr %10, align 8, !tbaa !122
  store ptr %2, ptr %26, align 8, !tbaa !125
  %28 = getelementptr inbounds nuw i8, ptr %0, i64 56
  %29 = load double, ptr %28, align 8, !tbaa !208
  %30 = getelementptr inbounds nuw i8, ptr %0, i64 48
  %31 = load i32, ptr %30, align 8, !tbaa !210
  invoke void @_ZN2cv7inpaintERKNS_11_InputArrayES2_RKNS_12_OutputArrayEdi(ptr noundef nonnull align 8 dereferenceable(24) %8, ptr noundef nonnull align 8 dereferenceable(24) %9, ptr noundef nonnull align 8 dereferenceable(24) %10, double noundef %29, i32 noundef %31)
          to label %32 unwind label %41

32:                                               ; preds = %19
  call void @llvm.lifetime.end.p0(i64 24, ptr nonnull %10) #26
  call void @llvm.lifetime.end.p0(i64 24, ptr nonnull %9) #26
  call void @llvm.lifetime.end.p0(i64 24, ptr nonnull %8) #26
  %33 = getelementptr inbounds nuw i8, ptr %5, i64 8
  %34 = load i32, ptr %33, align 8, !tbaa !34
  %.not.i = icmp eq i32 %34, 0
  br i1 %.not.i, label %_ZN2cv5utils5trace7details6RegionD2Ev.exit, label %35

35:                                               ; preds = %32
  invoke void @_ZN2cv5utils5trace7details6Region7destroyEv(ptr noundef nonnull align 8 dereferenceable(12) %5)
          to label %_ZN2cv5utils5trace7details6RegionD2Ev.exit unwind label %36

36:                                               ; preds = %35
  %37 = landingpad { ptr, i32 }
          catch ptr null
  %38 = extractvalue { ptr, i32 } %37, 0
  call void @__clang_call_terminate(ptr %38) #27
  unreachable

_ZN2cv5utils5trace7details6RegionD2Ev.exit:       ; preds = %32, %35
  call void @llvm.lifetime.end.p0(i64 16, ptr nonnull %5) #26
  ret void

39:                                               ; preds = %18, %4
  %40 = landingpad { ptr, i32 }
          cleanup
  call void @llvm.lifetime.end.p0(i64 24, ptr nonnull %7) #26
  call void @llvm.lifetime.end.p0(i64 24, ptr nonnull %6) #26
  br label %43

41:                                               ; preds = %19
  %42 = landingpad { ptr, i32 }
          cleanup
  call void @llvm.lifetime.end.p0(i64 24, ptr nonnull %10) #26
  call void @llvm.lifetime.end.p0(i64 24, ptr nonnull %9) #26
  call void @llvm.lifetime.end.p0(i64 24, ptr nonnull %8) #26
  br label %43

43:                                               ; preds = %41, %39
  %.pn13.pn.pn.pn = phi { ptr, i32 } [ %42, %41 ], [ %40, %39 ]
  call void @_ZN2cv5utils5trace7details6RegionD2Ev(ptr noundef nonnull align 8 dereferenceable(12) %5) #26
  call void @llvm.lifetime.end.p0(i64 16, ptr nonnull %5) #26
  resume { ptr, i32 } %.pn13.pn.pn.pn
}